target datalayout = "e-m:e-p270:32:32-p271:32:32-p272:64:64-i64:64-i128:128-f80:128-n8:16:32:64-S128"
target triple = "x86_64-pc-linux-gnu"

; Function Attrs: nounwind uwtable
define dso_local ptr @slurm_char_list_to_xstr(ptr noundef %0) #0 {
  %2 = alloca ptr, align 8
  %3 = alloca ptr, align 8
  %4 = alloca ptr, align 8
  %5 = alloca i32, align 4
  store ptr %0, ptr %3, align 8
  call void @llvm.lifetime.start.p0(i64 8, ptr %4) #11
  store ptr null, ptr %4, align 8
  %6 = load ptr, ptr %3, align 8
  %7 = icmp ne ptr %6, null
  br i1 %7, label %9, label %8

8:                                                ; preds = %1
  store ptr null, ptr %2, align 8
  store i32 1, ptr %5, align 4
  br label %14

9:                                                ; preds = %1
  %10 = load ptr, ptr %3, align 8
  call void @list_sort(ptr noundef %10, ptr noundef @slurm_sort_char_list_asc)
  %11 = load ptr, ptr %3, align 8
  %12 = call i32 @list_for_each(ptr noundef %11, ptr noundef @_char_list_append_str, ptr noundef %4)
  %13 = load ptr, ptr %4, align 8
  store ptr %13, ptr %2, align 8
  store i32 1, ptr %5, align 4
  br label %14

14:                                               ; preds = %9, %8
  call void @llvm.lifetime.end.p0(i64 8, ptr %4) #11
  %15 = load ptr, ptr %2, align 8
  ret ptr %15
}