; Function Attrs: nounwind uwtable
define dso_local ptr @slurm_char_list_to_xstr(ptr noundef %0) local_unnamed_addr #1 {
  %2 = alloca ptr, align 8
  call void @llvm.lifetime.start.p0(i64 8, ptr nonnull %2) #24
  store ptr null, ptr %2, align 8
  %.not = icmp eq ptr %0, null
  br i1 %.not, label %6, label %3

3:                                                ; preds = %1
  tail call void @list_sort(ptr noundef nonnull %0, ptr noundef nonnull @slurm_sort_char_list_asc) #24
  %4 = call i32 @list_for_each(ptr noundef nonnull %0, ptr noundef nonnull @_char_list_append_str, ptr noundef nonnull %2) #24
  %5 = load ptr, ptr %2, align 8
  br label %6

6:                                                ; preds = %1, %3
  %.0 = phi ptr [ %5, %3 ], [ null, %1 ]
  call void @llvm.lifetime.end.p0(i64 8, ptr nonnull %2) #24
  ret ptr %.0
}